target datalayout = "e-m:e-p270:32:32-p271:32:32-p272:64:64-i64:64-i128:128-f80:128-n8:16:32:64-S128"
target triple = "x86_64-pc-linux-gnu"

%struct.Kit_DsdNtk_t_ = type { i16, i16, i16, i16, ptr, ptr, ptr }
%struct.Kit_DsdObj_t_ = type { i32, [0 x i16] }

; Function Attrs: inlinehint nounwind uwtable
define internal i32 @Abc_Lit2Var(i32 noundef %0) #4 {
  %2 = alloca i32, align 4
  store i32 %0, ptr %2, align 4, !tbaa !3
  %3 = load i32, ptr %2, align 4, !tbaa !3
  %4 = ashr i32 %3, 1
  ret i32 %4
}

; Function Attrs: inlinehint nounwind uwtable
define internal ptr @Kit_DsdNtkObj(ptr noundef %0, i32 noundef %1) #4 {
  %3 = alloca ptr, align 8
  %4 = alloca i32, align 4
  store ptr %0, ptr %3, align 8, !tbaa !37
  store i32 %1, ptr %4, align 4, !tbaa !3
  %5 = load i32, ptr %4, align 4, !tbaa !3
  %6 = load ptr, ptr %3, align 8, !tbaa !37
  %7 = getelementptr inbounds nuw %struct.Kit_DsdNtk_t_, ptr %6, i32 0, i32 0
  %8 = load i16, ptr %7, align 8, !tbaa !41
  %9 = zext i16 %8 to i32
  %10 = icmp slt i32 %5, %9
  br i1 %10, label %11, label %12

11:                                               ; preds = %2
  br label %25

12:                                               ; preds = %2
  %13 = load ptr, ptr %3, align 8, !tbaa !37
  %14 = getelementptr inbounds nuw %struct.Kit_DsdNtk_t_, ptr %13, i32 0, i32 6
  %15 = load ptr, ptr %14, align 8, !tbaa !47
  %16 = load i32, ptr %4, align 4, !tbaa !3
  %17 = load ptr, ptr %3, align 8, !tbaa !37
  %18 = getelementptr inbounds nuw %struct.Kit_DsdNtk_t_, ptr %17, i32 0, i32 0
  %19 = load i16, ptr %18, align 8, !tbaa !41
  %20 = zext i16 %19 to i32
  %21 = sub nsw i32 %16, %20
  %22 = sext i32 %21 to i64
  %23 = getelementptr inbounds ptr, ptr %15, i64 %22
  %24 = load ptr, ptr %23, align 8, !tbaa !39
  br label %25

25:                                               ; preds = %12, %11
  %26 = phi ptr [ null, %11 ], [ %24, %12 ]
  ret ptr %26
}

; Function Attrs: nounwind uwtable
define i32 @Kit_DsdCountAigNodes_rec(ptr noundef %0, i32 noundef %1) #0 {
  %3 = alloca i32, align 4
  %4 = alloca ptr, align 8
  %5 = alloca i32, align 4
  %6 = alloca ptr, align 8
  %7 = alloca i32, align 4
  %8 = alloca i32, align 4
  %9 = alloca i32, align 4
  %10 = alloca i32, align 4
  store ptr %0, ptr %4, align 8, !tbaa !37
  store i32 %1, ptr %5, align 4, !tbaa !3
  call void @llvm.lifetime.start.p0(i64 8, ptr %6) #9
  call void @llvm.lifetime.start.p0(i64 4, ptr %7) #9
  call void @llvm.lifetime.start.p0(i64 4, ptr %8) #9
  call void @llvm.lifetime.start.p0(i64 4, ptr %9) #9
  store i32 0, ptr %9, align 4, !tbaa !3
  %11 = load ptr, ptr %4, align 8, !tbaa !37
  %12 = load i32, ptr %5, align 4, !tbaa !3
  %13 = call ptr @Kit_DsdNtkObj(ptr noundef %11, i32 noundef %12)
  store ptr %13, ptr %6, align 8, !tbaa !39
  %14 = load ptr, ptr %6, align 8, !tbaa !39
  %15 = icmp eq ptr %14, null
  br i1 %15, label %16, label %17

16:                                               ; preds = %2
  store i32 0, ptr %3, align 4
  store i32 1, ptr %10, align 4
  br label %98

17:                                               ; preds = %2
  %18 = load ptr, ptr %6, align 8, !tbaa !39
  %19 = load i32, ptr %18, align 4
  %20 = lshr i32 %19, 6
  %21 = and i32 %20, 7
  %22 = icmp eq i32 %21, 1
  br i1 %22, label %29, label %23

23:                                               ; preds = %17
  %24 = load ptr, ptr %6, align 8, !tbaa !39
  %25 = load i32, ptr %24, align 4
  %26 = lshr i32 %25, 6
  %27 = and i32 %26, 7
  %28 = icmp eq i32 %27, 2
  br i1 %28, label %29, label %30

29:                                               ; preds = %23, %17
  store i32 0, ptr %3, align 4
  store i32 1, ptr %10, align 4
  br label %98

30:                                               ; preds = %23
  %31 = load ptr, ptr %6, align 8, !tbaa !39
  %32 = load i32, ptr %31, align 4
  %33 = lshr i32 %32, 26
  %34 = icmp slt i32 %33, 2
  br i1 %34, label %35, label %36

35:                                               ; preds = %30
  store i32 0, ptr %3, align 4
  store i32 1, ptr %10, align 4
  br label %98

36:                                               ; preds = %30
  %37 = load ptr, ptr %6, align 8, !tbaa !39
  %38 = load i32, ptr %37, align 4
  %39 = lshr i32 %38, 6
  %40 = and i32 %39, 7
  %41 = icmp eq i32 %40, 3
  br i1 %41, label %42, label %47

42:                                               ; preds = %36
  %43 = load ptr, ptr %6, align 8, !tbaa !39
  %44 = load i32, ptr %43, align 4
  %45 = lshr i32 %44, 26
  %46 = sub nsw i32 %45, 1
  store i32 %46, ptr %9, align 4, !tbaa !3
  br label %69

47:                                               ; preds = %36
  %48 = load ptr, ptr %6, align 8, !tbaa !39
  %49 = load i32, ptr %48, align 4
  %50 = lshr i32 %49, 6
  %51 = and i32 %50, 7
  %52 = icmp eq i32 %51, 4
  br i1 %52, label %53, label %59

53:                                               ; preds = %47
  %54 = load ptr, ptr %6, align 8, !tbaa !39
  %55 = load i32, ptr %54, align 4
  %56 = lshr i32 %55, 26
  %57 = sub nsw i32 %56, 1
  %58 = mul nsw i32 %57, 3
  store i32 %58, ptr %9, align 4, !tbaa !3
  br label %68

59:                                               ; preds = %47
  %60 = load ptr, ptr %6, align 8, !tbaa !39
  %61 = load i32, ptr %60, align 4
  %62 = lshr i32 %61, 6
  %63 = and i32 %62, 7
  %64 = icmp eq i32 %63, 5
  br i1 %64, label %65, label %66

65:                                               ; preds = %59
  store i32 3, ptr %9, align 4, !tbaa !3
  br label %67

66:                                               ; preds = %59
  br label %67

67:                                               ; preds = %66, %65
  br label %68

68:                                               ; preds = %67, %53
  br label %69

69:                                               ; preds = %68, %42
  store i32 0, ptr %8, align 4, !tbaa !3
  br label %70

70:                                               ; preds = %93, %69
  %71 = load i32, ptr %8, align 4, !tbaa !3
  %72 = load ptr, ptr %6, align 8, !tbaa !39
  %73 = load i32, ptr %72, align 4
  %74 = lshr i32 %73, 26
  %75 = icmp ult i32 %71, %74
  br i1 %75, label %76, label %84

76:                                               ; preds = %70
  %77 = load ptr, ptr %6, align 8, !tbaa !39
  %78 = getelementptr inbounds nuw %struct.Kit_DsdObj_t_, ptr %77, i32 0, i32 1
  %79 = load i32, ptr %8, align 4, !tbaa !3
  %80 = zext i32 %79 to i64
  %81 = getelementptr inbounds nuw [0 x i16], ptr %78, i64 0, i64 %80
  %82 = load i16, ptr %81, align 2, !tbaa !58
  %83 = zext i16 %82 to i32
  store i32 %83, ptr %7, align 4, !tbaa !3
  br label %84

84:                                               ; preds = %76, %70
  %85 = phi i1 [ false, %70 ], [ true, %76 ]
  br i1 %85, label %86, label %96

86:                                               ; preds = %84
  %87 = load ptr, ptr %4, align 8, !tbaa !37
  %88 = load i32, ptr %7, align 4, !tbaa !3
  %89 = call i32 @Abc_Lit2Var(i32 noundef %88)
  %90 = call i32 @Kit_DsdCountAigNodes_rec(ptr noundef %87, i32 noundef %89)
  %91 = load i32, ptr %9, align 4, !tbaa !3
  %92 = add i32 %91, %90
  store i32 %92, ptr %9, align 4, !tbaa !3
  br label %93

93:                                               ; preds = %86
  %94 = load i32, ptr %8, align 4, !tbaa !3
  %95 = add i32 %94, 1
  store i32 %95, ptr %8, align 4, !tbaa !3
  br label %70, !llvm.loop !123

96:                                               ; preds = %84
  %97 = load i32, ptr %9, align 4, !tbaa !3
  store i32 %97, ptr %3, align 4
  store i32 1, ptr %10, align 4
  br label %98

98:                                               ; preds = %96, %35, %29, %16
  call void @llvm.lifetime.end.p0(i64 4, ptr %9) #9
  call void @llvm.lifetime.end.p0(i64 4, ptr %8) #9
  call void @llvm.lifetime.end.p0(i64 4, ptr %7) #9
  call void @llvm.lifetime.end.p0(i64 8, ptr %6) #9
  %99 = load i32, ptr %3, align 4
  ret i32 %99
}