; Function Attrs: nofree nosync nounwind memory(read, inaccessiblemem: none) uwtable
define i32 @Kit_DsdCountAigNodes_rec(ptr noundef readonly captures(none) %0, i32 noundef %1) local_unnamed_addr #17 {
  %3 = load i16, ptr %0, align 8, !tbaa !34
  %4 = zext i16 %3 to i32
  %5 = icmp slt i32 %1, %4
  br i1 %5, label %.critedge, label %Kit_DsdNtkObj.exit

Kit_DsdNtkObj.exit:                               ; preds = %2
  %6 = getelementptr inbounds nuw i8, ptr %0, i64 24
  %7 = load ptr, ptr %6, align 8, !tbaa !40
  %8 = sub nsw i32 %1, %4
  %9 = sext i32 %8 to i64
  %10 = getelementptr inbounds ptr, ptr %7, i64 %9
  %11 = load ptr, ptr %10, align 8, !tbaa !41
  %12 = icmp eq ptr %11, null
  br i1 %12, label %.critedge, label %13

13:                                               ; preds = %Kit_DsdNtkObj.exit
  %14 = load i32, ptr %11, align 4
  %15 = lshr i32 %14, 6
  %16 = and i32 %15, 7
  %.off = add nsw i32 %16, -1
  %switch = icmp ult i32 %.off, 2
  br i1 %switch, label %.critedge, label %17

17:                                               ; preds = %13
  %18 = lshr i32 %14, 26
  %19 = icmp ult i32 %14, 134217728
  br i1 %19, label %.critedge, label %20

20:                                               ; preds = %17
  switch i32 %16, label %.lr.ph [
    i32 3, label %21
    i32 4, label %23
    i32 5, label %26
  ]

21:                                               ; preds = %20
  %22 = add nsw i32 %18, -1
  br label %.lr.ph

23:                                               ; preds = %20
  %24 = mul nuw nsw i32 %18, 3
  %25 = add nsw i32 %24, -3
  br label %.lr.ph

26:                                               ; preds = %20
  br label %.lr.ph

.lr.ph:                                           ; preds = %21, %26, %23, %20
  %.0 = phi i32 [ %22, %21 ], [ %25, %23 ], [ 3, %26 ], [ 0, %20 ]
  %27 = getelementptr inbounds nuw i8, ptr %11, i64 4
  %umax = tail call i32 @llvm.umax.i32(i32 %18, i32 1)
  %wide.trip.count = zext nneg i32 %umax to i64
  br label %28

28:                                               ; preds = %.lr.ph, %28
  %indvars.iv = phi i64 [ 0, %.lr.ph ], [ %indvars.iv.next, %28 ]
  %.126 = phi i32 [ %.0, %.lr.ph ], [ %34, %28 ]
  %29 = getelementptr inbounds nuw [0 x i16], ptr %27, i64 0, i64 %indvars.iv
  %30 = load i16, ptr %29, align 2, !tbaa !49
  %31 = lshr i16 %30, 1
  %32 = zext nneg i16 %31 to i32
  %33 = tail call i32 @Kit_DsdCountAigNodes_rec(ptr noundef nonnull %0, i32 noundef %32)
  %34 = add i32 %33, %.126
  %indvars.iv.next = add nuw nsw i64 %indvars.iv, 1
  %exitcond.not = icmp eq i64 %indvars.iv.next, %wide.trip.count
  br i1 %exitcond.not, label %.critedge, label %28, !llvm.loop !112

.critedge:                                        ; preds = %28, %2, %13, %17, %Kit_DsdNtkObj.exit
  %.021 = phi i32 [ 0, %Kit_DsdNtkObj.exit ], [ 0, %13 ], [ 0, %17 ], [ 0, %2 ], [ %34, %28 ]
  ret i32 %.021
}